; Function Attrs: mustprogress uwtable
define void @_ZN5faiss10IndexNSGSQC2Ev(ptr noundef nonnull align 8 dereferenceable(5132) %0) unnamed_addr #1 align 2 personality ptr @__gxx_personality_v0 {
  %2 = getelementptr inbounds i8, ptr %0, i64 8
  store i32 0, ptr %2, align 8
  %3 = getelementptr inbounds i8, ptr %0, i64 16
  store i64 0, ptr %3, align 8
  %4 = getelementptr inbounds i8, ptr %0, i64 24
  store i8 0, ptr %4, align 8
  %5 = getelementptr inbounds i8, ptr %0, i64 25
  store i8 1, ptr %5, align 1
  %6 = getelementptr inbounds i8, ptr %0, i64 28
  store i32 1, ptr %6, align 4
  %7 = getelementptr inbounds i8, ptr %0, i64 32
  store float 0.000000e+00, ptr %7, align 8
  store ptr getelementptr inbounds ({ [24 x ptr] }, ptr @_ZTVN5faiss8IndexNSGE, i64 0, i32 0, i64 2), ptr %0, align 8
  %8 = getelementptr inbounds i8, ptr %0, i64 40
  invoke void @_ZN5faiss3NSGC1Ei(ptr noundef nonnull align 8 dereferenceable(5048) %8, i32 noundef 32)
          to label %_ZN5faiss8IndexNSGC2EiiNS_10MetricTypeE.exit unwind label %9

9:                                                ; preds = %1
  %10 = landingpad { ptr, i32 }
          cleanup
  tail call void @_ZN5faiss5IndexD2Ev(ptr noundef nonnull align 8 dereferenceable(36) %0) #8
  resume { ptr, i32 } %10

_ZN5faiss8IndexNSGC2EiiNS_10MetricTypeE.exit:     ; preds = %1
  %11 = getelementptr inbounds i8, ptr %0, i64 5088
  store i8 0, ptr %11, align 8
  %12 = getelementptr inbounds i8, ptr %0, i64 5096
  store ptr null, ptr %12, align 8
  %13 = getelementptr inbounds i8, ptr %0, i64 5104
  store i8 0, ptr %13, align 8
  %14 = getelementptr inbounds i8, ptr %0, i64 5108
  store i32 64, ptr %14, align 4
  %15 = getelementptr inbounds i8, ptr %0, i64 5112
  store i8 0, ptr %15, align 8
  %16 = getelementptr inbounds i8, ptr %0, i64 5116
  store <4 x i32> <i32 10, i32 100, i32 114, i32 10>, ptr %16, align 4
  store ptr getelementptr inbounds ({ [24 x ptr] }, ptr @_ZTVN5faiss10IndexNSGSQE, i64 0, i32 0, i64 2), ptr %0, align 8
  ret void
}